target datalayout = "e-m:e-p270:32:32-p271:32:32-p272:64:64-i64:64-i128:128-f80:128-n8:16:32:64-S128"
target triple = "x86_64-pc-linux-gnu"

@j2d_glVertex2i = external global ptr, align 8

; Function Attrs: nounwind uwtable
define hidden void @OGLRenderer_FillSpans(ptr noundef %0, i32 noundef %1, ptr noundef %2) #0 {
  %4 = alloca ptr, align 8
  %5 = alloca i32, align 4
  %6 = alloca ptr, align 8
  %7 = alloca i32, align 4
  %8 = alloca i32, align 4
  %9 = alloca i32, align 4
  %10 = alloca i32, align 4
  store ptr %0, ptr %4, align 8
  store i32 %1, ptr %5, align 4
  store ptr %2, ptr %6, align 8
  %11 = load ptr, ptr %4, align 8
  %12 = icmp eq ptr %11, null
  br i1 %12, label %13, label %14

13:                                               ; preds = %3
  br label %57

14:                                               ; preds = %3
  br label %15

15:                                               ; preds = %14
  br label %16

16:                                               ; preds = %15
  br label %17

17:                                               ; preds = %16
  %18 = load ptr, ptr %6, align 8
  %19 = icmp eq ptr %18, null
  br i1 %19, label %20, label %21

20:                                               ; preds = %17
  br label %57

21:                                               ; preds = %17
  br label %22

22:                                               ; preds = %21
  br label %23

23:                                               ; preds = %22
  br label %24

24:                                               ; preds = %23
  call void @OGLRenderQueue_CheckPreviousOp(i32 noundef 7)
  br label %25

25:                                               ; preds = %54, %24
  %26 = load i32, ptr %5, align 4
  %27 = icmp sgt i32 %26, 0
  br i1 %27, label %28, label %57

28:                                               ; preds = %25
  %29 = load ptr, ptr %6, align 8
  %30 = getelementptr inbounds i32, ptr %29, i32 1
  store ptr %30, ptr %6, align 8
  %31 = load i32, ptr %29, align 4
  store i32 %31, ptr %7, align 4
  %32 = load ptr, ptr %6, align 8
  %33 = getelementptr inbounds i32, ptr %32, i32 1
  store ptr %33, ptr %6, align 8
  %34 = load i32, ptr %32, align 4
  store i32 %34, ptr %8, align 4
  %35 = load ptr, ptr %6, align 8
  %36 = getelementptr inbounds i32, ptr %35, i32 1
  store ptr %36, ptr %6, align 8
  %37 = load i32, ptr %35, align 4
  store i32 %37, ptr %9, align 4
  %38 = load ptr, ptr %6, align 8
  %39 = getelementptr inbounds i32, ptr %38, i32 1
  store ptr %39, ptr %6, align 8
  %40 = load i32, ptr %38, align 4
  store i32 %40, ptr %10, align 4
  br label %41

41:                                               ; preds = %28
  %42 = load ptr, ptr @j2d_glVertex2i, align 8
  %43 = load i32, ptr %7, align 4
  %44 = load i32, ptr %8, align 4
  call void %42(i32 noundef %43, i32 noundef %44)
  %45 = load ptr, ptr @j2d_glVertex2i, align 8
  %46 = load i32, ptr %9, align 4
  %47 = load i32, ptr %8, align 4
  call void %45(i32 noundef %46, i32 noundef %47)
  %48 = load ptr, ptr @j2d_glVertex2i, align 8
  %49 = load i32, ptr %9, align 4
  %50 = load i32, ptr %10, align 4
  call void %48(i32 noundef %49, i32 noundef %50)
  %51 = load ptr, ptr @j2d_glVertex2i, align 8
  %52 = load i32, ptr %7, align 4
  %53 = load i32, ptr %10, align 4
  call void %51(i32 noundef %52, i32 noundef %53)
  br label %54

54:                                               ; preds = %41
  %55 = load i32, ptr %5, align 4
  %56 = add nsw i32 %55, -1
  store i32 %56, ptr %5, align 4
  br label %25, !llvm.loop !9

57:                                               ; preds = %25, %20, %13
  ret void
}