; Function Attrs: nounwind uwtable
define hidden void @OGLRenderer_FillSpans(ptr noundef readnone %0, i32 noundef %1, ptr noundef readonly %2) local_unnamed_addr #0 {
  %4 = icmp eq ptr %0, null
  %5 = icmp eq ptr %2, null
  %or.cond = or i1 %4, %5
  br i1 %or.cond, label %.loopexit, label %6

6:                                                ; preds = %3
  tail call void @OGLRenderQueue_CheckPreviousOp(i32 noundef 7) #4
  %7 = icmp sgt i32 %1, 0
  br i1 %7, label %.lr.ph, label %.loopexit

.lr.ph:                                           ; preds = %6, %.lr.ph
  %.019 = phi i32 [ %20, %.lr.ph ], [ %1, %6 ]
  %.01618 = phi ptr [ %14, %.lr.ph ], [ %2, %6 ]
  %8 = getelementptr inbounds i8, ptr %.01618, i64 4
  %9 = load i32, ptr %.01618, align 4
  %10 = getelementptr inbounds i8, ptr %.01618, i64 8
  %11 = load i32, ptr %8, align 4
  %12 = getelementptr inbounds i8, ptr %.01618, i64 12
  %13 = load i32, ptr %10, align 4
  %14 = getelementptr inbounds i8, ptr %.01618, i64 16
  %15 = load i32, ptr %12, align 4
  %16 = load ptr, ptr @j2d_glVertex2i, align 8
  tail call void %16(i32 noundef %9, i32 noundef %11) #4
  %17 = load ptr, ptr @j2d_glVertex2i, align 8
  tail call void %17(i32 noundef %13, i32 noundef %11) #4
  %18 = load ptr, ptr @j2d_glVertex2i, align 8
  tail call void %18(i32 noundef %13, i32 noundef %15) #4
  %19 = load ptr, ptr @j2d_glVertex2i, align 8
  tail call void %19(i32 noundef %9, i32 noundef %15) #4
  %20 = add nsw i32 %.019, -1
  %21 = icmp ugt i32 %.019, 1
  br i1 %21, label %.lr.ph, label %.loopexit, !llvm.loop !9

.loopexit:                                        ; preds = %.lr.ph, %6, %3
  ret void
}